target datalayout = "e-m:e-p270:32:32-p271:32:32-p272:64:64-i64:64-i128:128-f80:128-n8:16:32:64-S128"
target triple = "x86_64-pc-linux-gnu"

%struct.evthread_lock_callbacks = type { i32, i32, ptr, ptr, ptr, ptr }
%struct.ev_token_bucket = type { i64, i64, i32 }
%struct.ev_token_bucket_cfg = type { i64, i64, i64, i64, %struct.timeval, i32 }
%struct.timeval = type { i64, i64 }
%struct.bufferevent_private = type { %struct.bufferevent, ptr, i8, i16, i16, i16, i32, i32, %struct.event_callback, i32, i32, ptr, i64, i64, ptr, %union.anon.7, ptr }
%struct.bufferevent = type { ptr, ptr, %struct.event, %struct.event, ptr, ptr, %struct.event_watermark, %struct.event_watermark, ptr, ptr, ptr, ptr, %struct.timeval, %struct.timeval, i16 }
%struct.event = type { %struct.event_callback, %union.anon.0, i32, i16, i16, ptr, %union.anon.2, %struct.timeval }
%union.anon.0 = type { %struct.anon.1 }
%struct.anon.1 = type { ptr, ptr }
%union.anon.2 = type { %struct.anon.3 }
%struct.anon.3 = type { %struct.anon.4, %struct.timeval }
%struct.anon.4 = type { ptr, ptr }
%struct.event_watermark = type { i64, i64 }
%struct.event_callback = type { %struct.anon, i16, i8, i8, %union.anon, ptr }
%struct.anon = type { ptr, ptr }
%union.anon = type { ptr }
%union.anon.7 = type { %struct.sockaddr_in6 }
%struct.sockaddr_in6 = type { i16, i16, i32, %struct.in6_addr, i32 }
%struct.in6_addr = type { %union.anon.8 }
%union.anon.8 = type { [4 x i32] }
%struct.bufferevent_rate_limit = type { %struct.anon.9, ptr, %struct.ev_token_bucket, ptr, %struct.event }
%struct.anon.9 = type { ptr, ptr }

@evthread_lock_fns_ = external global %struct.evthread_lock_callbacks, align 8

; Function Attrs: nounwind uwtable
define i32 @bufferevent_decrement_read_limit(ptr noundef %0, i64 noundef %1) #0 {
  %3 = alloca ptr, align 8
  %4 = alloca i64, align 8
  %5 = alloca i32, align 4
  %6 = alloca i64, align 8
  %7 = alloca i64, align 8
  %8 = alloca ptr, align 8
  %9 = alloca ptr, align 8
  %10 = alloca ptr, align 8
  store ptr %0, ptr %3, align 8
  store i64 %1, ptr %4, align 8
  call void @llvm.lifetime.start.p0(i64 4, ptr %5) #5
  store i32 0, ptr %5, align 4
  call void @llvm.lifetime.start.p0(i64 8, ptr %6) #5
  call void @llvm.lifetime.start.p0(i64 8, ptr %7) #5
  call void @llvm.lifetime.start.p0(i64 8, ptr %8) #5
  br label %11

11:                                               ; preds = %2
  call void @llvm.lifetime.start.p0(i64 8, ptr %9) #5
  %12 = load ptr, ptr %3, align 8
  %13 = getelementptr inbounds i8, ptr %12, i64 0
  store ptr %13, ptr %9, align 8
  br label %14

14:                                               ; preds = %11
  %15 = load ptr, ptr %9, align 8
  %16 = getelementptr inbounds nuw %struct.bufferevent_private, ptr %15, i32 0, i32 11
  %17 = load ptr, ptr %16, align 8
  %18 = icmp ne ptr %17, null
  br i1 %18, label %19, label %25

19:                                               ; preds = %14
  %20 = load ptr, ptr getelementptr inbounds nuw (%struct.evthread_lock_callbacks, ptr @evthread_lock_fns_, i32 0, i32 4), align 8
  %21 = load ptr, ptr %9, align 8
  %22 = getelementptr inbounds nuw %struct.bufferevent_private, ptr %21, i32 0, i32 11
  %23 = load ptr, ptr %22, align 8
  %24 = call i32 %20(i32 noundef 0, ptr noundef %23)
  br label %25

25:                                               ; preds = %19, %14
  br label %26

26:                                               ; preds = %25
  br label %27

27:                                               ; preds = %26
  call void @llvm.lifetime.end.p0(i64 8, ptr %9) #5
  br label %28

28:                                               ; preds = %27
  br label %29

29:                                               ; preds = %28
  %30 = load ptr, ptr %3, align 8
  %31 = getelementptr inbounds i8, ptr %30, i64 0
  store ptr %31, ptr %8, align 8
  br label %32

32:                                               ; preds = %29
  br label %33

33:                                               ; preds = %32
  br label %34

34:                                               ; preds = %33
  %35 = load ptr, ptr %8, align 8
  %36 = getelementptr inbounds nuw %struct.bufferevent_private, ptr %35, i32 0, i32 14
  %37 = load ptr, ptr %36, align 8
  %38 = getelementptr inbounds nuw %struct.bufferevent_rate_limit, ptr %37, i32 0, i32 2
  %39 = getelementptr inbounds nuw %struct.ev_token_bucket, ptr %38, i32 0, i32 0
  %40 = load i64, ptr %39, align 8
  store i64 %40, ptr %6, align 8
  %41 = load i64, ptr %4, align 8
  %42 = load ptr, ptr %8, align 8
  %43 = getelementptr inbounds nuw %struct.bufferevent_private, ptr %42, i32 0, i32 14
  %44 = load ptr, ptr %43, align 8
  %45 = getelementptr inbounds nuw %struct.bufferevent_rate_limit, ptr %44, i32 0, i32 2
  %46 = getelementptr inbounds nuw %struct.ev_token_bucket, ptr %45, i32 0, i32 0
  %47 = load i64, ptr %46, align 8
  %48 = sub nsw i64 %47, %41
  store i64 %48, ptr %46, align 8
  store i64 %48, ptr %7, align 8
  %49 = load i64, ptr %6, align 8
  %50 = icmp sgt i64 %49, 0
  br i1 %50, label %51, label %70

51:                                               ; preds = %34
  %52 = load i64, ptr %7, align 8
  %53 = icmp sle i64 %52, 0
  br i1 %53, label %54, label %70

54:                                               ; preds = %51
  %55 = load ptr, ptr %3, align 8
  call void @bufferevent_suspend_read_(ptr noundef %55, i16 noundef zeroext 2)
  %56 = load ptr, ptr %8, align 8
  %57 = getelementptr inbounds nuw %struct.bufferevent_private, ptr %56, i32 0, i32 14
  %58 = load ptr, ptr %57, align 8
  %59 = getelementptr inbounds nuw %struct.bufferevent_rate_limit, ptr %58, i32 0, i32 4
  %60 = load ptr, ptr %8, align 8
  %61 = getelementptr inbounds nuw %struct.bufferevent_private, ptr %60, i32 0, i32 14
  %62 = load ptr, ptr %61, align 8
  %63 = getelementptr inbounds nuw %struct.bufferevent_rate_limit, ptr %62, i32 0, i32 3
  %64 = load ptr, ptr %63, align 8
  %65 = getelementptr inbounds nuw %struct.ev_token_bucket_cfg, ptr %64, i32 0, i32 4
  %66 = call i32 @event_add(ptr noundef %59, ptr noundef %65)
  %67 = icmp slt i32 %66, 0
  br i1 %67, label %68, label %69

68:                                               ; preds = %54
  store i32 -1, ptr %5, align 4
  br label %69

69:                                               ; preds = %68, %54
  br label %92

70:                                               ; preds = %51, %34
  %71 = load i64, ptr %6, align 8
  %72 = icmp sle i64 %71, 0
  br i1 %72, label %73, label %91

73:                                               ; preds = %70
  %74 = load i64, ptr %7, align 8
  %75 = icmp sgt i64 %74, 0
  br i1 %75, label %76, label %91

76:                                               ; preds = %73
  %77 = load ptr, ptr %8, align 8
  %78 = getelementptr inbounds nuw %struct.bufferevent_private, ptr %77, i32 0, i32 5
  %79 = load i16, ptr %78, align 2
  %80 = zext i16 %79 to i32
  %81 = and i32 %80, 2
  %82 = icmp ne i32 %81, 0
  br i1 %82, label %89, label %83

83:                                               ; preds = %76
  %84 = load ptr, ptr %8, align 8
  %85 = getelementptr inbounds nuw %struct.bufferevent_private, ptr %84, i32 0, i32 14
  %86 = load ptr, ptr %85, align 8
  %87 = getelementptr inbounds nuw %struct.bufferevent_rate_limit, ptr %86, i32 0, i32 4
  %88 = call i32 @event_del(ptr noundef %87)
  br label %89

89:                                               ; preds = %83, %76
  %90 = load ptr, ptr %3, align 8
  call void @bufferevent_unsuspend_read_(ptr noundef %90, i16 noundef zeroext 2)
  br label %91

91:                                               ; preds = %89, %73, %70
  br label %92

92:                                               ; preds = %91, %69
  br label %93

93:                                               ; preds = %92
  call void @llvm.lifetime.start.p0(i64 8, ptr %10) #5
  %94 = load ptr, ptr %3, align 8
  %95 = getelementptr inbounds i8, ptr %94, i64 0
  store ptr %95, ptr %10, align 8
  br label %96

96:                                               ; preds = %93
  %97 = load ptr, ptr %10, align 8
  %98 = getelementptr inbounds nuw %struct.bufferevent_private, ptr %97, i32 0, i32 11
  %99 = load ptr, ptr %98, align 8
  %100 = icmp ne ptr %99, null
  br i1 %100, label %101, label %107

101:                                              ; preds = %96
  %102 = load ptr, ptr getelementptr inbounds nuw (%struct.evthread_lock_callbacks, ptr @evthread_lock_fns_, i32 0, i32 5), align 8
  %103 = load ptr, ptr %10, align 8
  %104 = getelementptr inbounds nuw %struct.bufferevent_private, ptr %103, i32 0, i32 11
  %105 = load ptr, ptr %104, align 8
  %106 = call i32 %102(i32 noundef 0, ptr noundef %105)
  br label %107

107:                                              ; preds = %101, %96
  br label %108

108:                                              ; preds = %107
  br label %109

109:                                              ; preds = %108
  call void @llvm.lifetime.end.p0(i64 8, ptr %10) #5
  br label %110

110:                                              ; preds = %109
  br label %111

111:                                              ; preds = %110
  %112 = load i32, ptr %5, align 4
  call void @llvm.lifetime.end.p0(i64 8, ptr %8) #5
  call void @llvm.lifetime.end.p0(i64 8, ptr %7) #5
  call void @llvm.lifetime.end.p0(i64 8, ptr %6) #5
  call void @llvm.lifetime.end.p0(i64 4, ptr %5) #5
  ret i32 %112
}