; Function Attrs: nounwind uwtable
define range(i32 -1, 1) i32 @bufferevent_decrement_read_limit(ptr noundef %0, i64 noundef %1) local_unnamed_addr #3 {
  %3 = getelementptr inbounds nuw i8, ptr %0, i64 448
  %4 = load ptr, ptr %3, align 8
  %.not = icmp eq ptr %4, null
  br i1 %.not, label %8, label %5

5:                                                ; preds = %2
  %6 = load ptr, ptr getelementptr inbounds nuw (i8, ptr @evthread_lock_fns_, i64 24), align 8
  %7 = tail call i32 %6(i32 noundef 0, ptr noundef nonnull %4) #10
  br label %8

8:                                                ; preds = %5, %2
  %9 = getelementptr inbounds nuw i8, ptr %0, i64 472
  %10 = load ptr, ptr %9, align 8
  %11 = getelementptr inbounds nuw i8, ptr %10, i64 24
  %12 = load i64, ptr %11, align 8
  %13 = sub nsw i64 %12, %1
  store i64 %13, ptr %11, align 8
  %14 = icmp sgt i64 %12, 0
  %15 = icmp slt i64 %13, 1
  %or.cond = select i1 %14, i1 %15, i1 false
  br i1 %or.cond, label %16, label %23

16:                                               ; preds = %8
  tail call void @bufferevent_suspend_read_(ptr noundef nonnull %0, i16 noundef zeroext 2) #10
  %17 = load ptr, ptr %9, align 8
  %18 = getelementptr inbounds nuw i8, ptr %17, i64 56
  %19 = getelementptr inbounds nuw i8, ptr %17, i64 48
  %20 = load ptr, ptr %19, align 8
  %21 = getelementptr inbounds nuw i8, ptr %20, i64 32
  %22 = tail call i32 @event_add(ptr noundef nonnull %18, ptr noundef nonnull %21) #10
  %.lobit = ashr i32 %22, 31
  br label %35

23:                                               ; preds = %8
  %24 = icmp slt i64 %12, 1
  %25 = icmp sgt i64 %13, 0
  %or.cond3 = select i1 %24, i1 %25, i1 false
  br i1 %or.cond3, label %26, label %35

26:                                               ; preds = %23
  %27 = getelementptr inbounds nuw i8, ptr %0, i64 390
  %28 = load i16, ptr %27, align 2
  %29 = and i16 %28, 2
  %.not25 = icmp eq i16 %29, 0
  br i1 %.not25, label %30, label %34

30:                                               ; preds = %26
  %31 = load ptr, ptr %9, align 8
  %32 = getelementptr inbounds nuw i8, ptr %31, i64 56
  %33 = tail call i32 @event_del(ptr noundef nonnull %32) #10
  br label %34

34:                                               ; preds = %30, %26
  tail call void @bufferevent_unsuspend_read_(ptr noundef nonnull %0, i16 noundef zeroext 2) #10
  br label %35

35:                                               ; preds = %16, %34, %23
  %.0 = phi i32 [ 0, %34 ], [ 0, %23 ], [ %.lobit, %16 ]
  %36 = load ptr, ptr %3, align 8
  %.not26 = icmp eq ptr %36, null
  br i1 %.not26, label %40, label %37

37:                                               ; preds = %35
  %38 = load ptr, ptr getelementptr inbounds nuw (i8, ptr @evthread_lock_fns_, i64 32), align 8
  %39 = tail call i32 %38(i32 noundef 0, ptr noundef nonnull %36) #10
  br label %40

40:                                               ; preds = %37, %35
  ret i32 %.0
}